target datalayout = "e-m:e-p270:32:32-p271:32:32-p272:64:64-i64:64-i128:128-f80:128-n8:16:32:64-S128"
target triple = "x86_64-pc-linux-gnu"

%struct.H5F_t = type { ptr, ptr, ptr, ptr, i32, ptr, i8, i8, ptr, i32 }
%struct.H5F_shared_t = type { ptr, ptr, ptr, i8, i32, i32, %struct.H5F_mtab_t, ptr, i8, i8, i64, i32, i32, i64, i64, ptr, ptr, %struct.H5AC_cache_config_t, %struct.H5AC_cache_image_config_t, i8, i8, ptr, i64, i32, i8, i64, i64, double, i64, i64, i64, i32, i32, i32, i8, i32, ptr, ptr, ptr, ptr, i8, i8, i8, i64, ptr, ptr, i32, i64, i8, i32, i8, i64, i8, [13 x i32], [13 x i64], [13 x ptr], i8, i64, i64, [7 x i32], [7 x i32], %struct.H5F_blk_aggr_t, %struct.H5F_blk_aggr_t, i64, i64, %struct.H5F_meta_accum_t, i32, i32, [30 x ptr], %struct.H5F_object_flush_t, i8, ptr }
%struct.H5F_mtab_t = type { i32, i32, ptr }
%struct.H5AC_cache_config_t = type { i32, i8, i8, i8, [1025 x i8], i8, i8, i64, double, i64, i64, i64, i32, double, double, i8, i64, i32, double, double, i32, double, double, i8, i64, i32, i8, double, i64, i32 }
%struct.H5AC_cache_image_config_t = type { i32, i8, i8, i32 }
%struct.H5F_blk_aggr_t = type { i64, i64, i64, i64, i64 }
%struct.H5F_meta_accum_t = type { ptr, i64, i64, i64, i64, i64, i8 }
%struct.H5F_object_flush_t = type { ptr, ptr }

@H5AC_init_g = global i8 0, align 1
@H5_libterm_g = external global i8, align 1
@.str = private unnamed_addr constant [98 x i8] c"generated/home/dtcxzyw/WorkSpace/Projects/compilers/llvm-opt-benchmark/bench/hdf5/hdf5/src/H5AC.c\00", align 1
@H5E_FUNC_g = external global i64, align 8
@H5E_CANTINIT_g = external global i64, align 8
@.str.1 = private unnamed_addr constant [32 x i8] c"interface initialization failed\00", align 1
@H5E_CACHE_g = external global i64, align 8
@H5E_LOGGING_g = external global i64, align 8
@.str.7 = private unnamed_addr constant [27 x i8] c"unable to emit log message\00", align 1
@__func__.H5AC_dest = private unnamed_addr constant [10 x i8] c"H5AC_dest\00", align 1
@.str.8 = private unnamed_addr constant [29 x i8] c"unable to get logging status\00", align 1
@.str.9 = private unnamed_addr constant [40 x i8] c"metadata cache logging tear-down failed\00", align 1
@H5E_CANTFREE_g = external global i64, align 8
@.str.10 = private unnamed_addr constant [20 x i8] c"can't destroy cache\00", align 1

; Function Attrs: nounwind uwtable
define i32 @H5AC__init_package() #0 {
  %1 = load i8, ptr @H5AC_init_g, align 1, !tbaa !7, !range !9, !noundef !10
  %2 = trunc i8 %1 to i1
  br i1 %2, label %7, label %3

3:                                                ; preds = %0
  %4 = load i8, ptr @H5_libterm_g, align 1, !tbaa !7, !range !9, !noundef !10
  %5 = trunc i8 %4 to i1
  %6 = xor i1 %5, true
  br label %7

7:                                                ; preds = %3, %0
  %8 = phi i1 [ true, %0 ], [ %6, %3 ]
  %9 = xor i1 %8, true
  %10 = xor i1 %9, true
  %11 = zext i1 %10 to i32
  %12 = sext i32 %11 to i64
  %13 = call i64 @llvm.expect.i64(i64 %12, i64 1)
  %14 = icmp ne i64 %13, 0
  br i1 %14, label %15, label %16

15:                                               ; preds = %7
  br label %16

16:                                               ; preds = %15, %7
  ret i32 0
}

; Function Attrs: nounwind uwtable
define i32 @H5AC_dest(ptr noundef %0) #0 {
  %2 = alloca ptr, align 8
  %3 = alloca i8, align 1
  %4 = alloca i8, align 1
  %5 = alloca i32, align 4
  %6 = alloca i8, align 1
  store ptr %0, ptr %2, align 8, !tbaa !13
  call void @llvm.lifetime.start.p0(i64 1, ptr %3) #6
  call void @llvm.lifetime.start.p0(i64 1, ptr %4) #6
  call void @llvm.lifetime.start.p0(i64 4, ptr %5) #6
  store i32 0, ptr %5, align 4, !tbaa !3
  call void @llvm.lifetime.start.p0(i64 1, ptr %6) #6
  store i8 0, ptr %6, align 1, !tbaa !7
  %7 = load i8, ptr @H5AC_init_g, align 1, !tbaa !7, !range !9, !noundef !10
  %8 = trunc i8 %7 to i1
  br i1 %8, label %13, label %9

9:                                                ; preds = %1
  %10 = load i8, ptr @H5_libterm_g, align 1, !tbaa !7, !range !9, !noundef !10
  %11 = trunc i8 %10 to i1
  %12 = xor i1 %11, true
  br label %13

13:                                               ; preds = %9, %1
  %14 = phi i1 [ false, %1 ], [ %12, %9 ]
  %15 = xor i1 %14, true
  %16 = xor i1 %15, true
  %17 = zext i1 %16 to i32
  %18 = sext i32 %17 to i64
  %19 = call i64 @llvm.expect.i64(i64 %18, i64 0)
  %20 = icmp ne i64 %19, 0
  br i1 %20, label %21, label %44

21:                                               ; preds = %13
  store i8 1, ptr @H5AC_init_g, align 1, !tbaa !7
  %22 = call i32 @H5AC__init_package()
  %23 = icmp slt i32 %22, 0
  br i1 %23, label %24, label %43

24:                                               ; preds = %21
  store i8 0, ptr @H5AC_init_g, align 1, !tbaa !7
  br label %25

25:                                               ; preds = %24
  br label %26

26:                                               ; preds = %25
  br label %27

27:                                               ; preds = %26
  %28 = load i64, ptr @H5E_FUNC_g, align 8, !tbaa !11
  %29 = load i64, ptr @H5E_CANTINIT_g, align 8, !tbaa !11
  %30 = call i32 (ptr, ptr, i32, i64, i64, ptr, ...) @H5E_printf_stack(ptr noundef @.str, ptr noundef @__func__.H5AC_dest, i32 noundef 436, i64 noundef %28, i64 noundef %29, ptr noundef @.str.1)
  br label %31

31:                                               ; preds = %27
  br label %32

32:                                               ; preds = %31
  store i8 1, ptr %6, align 1, !tbaa !7
  %33 = load i8, ptr %6, align 1, !tbaa !7, !range !9, !noundef !10
  %34 = trunc i8 %33 to i1
  %35 = zext i1 %34 to i8
  store i8 %35, ptr %6, align 1, !tbaa !7
  br label %36

36:                                               ; preds = %32
  br label %37

37:                                               ; preds = %36
  br label %38

38:                                               ; preds = %37
  store i32 -1, ptr %5, align 4, !tbaa !3
  br label %176

39:                                               ; No predecessors!
  br label %40

40:                                               ; preds = %39
  br label %41

41:                                               ; preds = %40
  br label %42

42:                                               ; preds = %41
  br label %43

43:                                               ; preds = %42, %21
  br label %44

44:                                               ; preds = %43, %13
  %45 = load i8, ptr @H5AC_init_g, align 1, !tbaa !7, !range !9, !noundef !10
  %46 = trunc i8 %45 to i1
  br i1 %46, label %51, label %47

47:                                               ; preds = %44
  %48 = load i8, ptr @H5_libterm_g, align 1, !tbaa !7, !range !9, !noundef !10
  %49 = trunc i8 %48 to i1
  %50 = xor i1 %49, true
  br label %51

51:                                               ; preds = %47, %44
  %52 = phi i1 [ true, %44 ], [ %50, %47 ]
  %53 = xor i1 %52, true
  %54 = xor i1 %53, true
  %55 = zext i1 %54 to i32
  %56 = sext i32 %55 to i64
  %57 = call i64 @llvm.expect.i64(i64 %56, i64 1)
  %58 = icmp ne i64 %57, 0
  br i1 %58, label %59, label %177

59:                                               ; preds = %51
  %60 = load ptr, ptr %2, align 8, !tbaa !13
  %61 = getelementptr inbounds nuw %struct.H5F_t, ptr %60, i32 0, i32 2
  %62 = load ptr, ptr %61, align 8, !tbaa !16
  %63 = getelementptr inbounds nuw %struct.H5F_shared_t, ptr %62, i32 0, i32 16
  %64 = load ptr, ptr %63, align 8, !tbaa !22
  %65 = call i32 @H5C_get_logging_status(ptr noundef %64, ptr noundef %3, ptr noundef %4)
  %66 = icmp slt i32 %65, 0
  br i1 %66, label %67, label %86

67:                                               ; preds = %59
  br label %68

68:                                               ; preds = %67
  br label %69

69:                                               ; preds = %68
  br label %70

70:                                               ; preds = %69
  %71 = load i64, ptr @H5E_CACHE_g, align 8, !tbaa !11
  %72 = load i64, ptr @H5E_LOGGING_g, align 8, !tbaa !11
  %73 = call i32 (ptr, ptr, i32, i64, i64, ptr, ...) @H5E_printf_stack(ptr noundef @.str, ptr noundef @__func__.H5AC_dest, i32 noundef 450, i64 noundef %71, i64 noundef %72, ptr noundef @.str.8)
  br label %74

74:                                               ; preds = %70
  br label %75

75:                                               ; preds = %74
  store i8 1, ptr %6, align 1, !tbaa !7
  %76 = load i8, ptr %6, align 1, !tbaa !7, !range !9, !noundef !10
  %77 = trunc i8 %76 to i1
  %78 = zext i1 %77 to i8
  store i8 %78, ptr %6, align 1, !tbaa !7
  br label %79

79:                                               ; preds = %75
  br label %80

80:                                               ; preds = %79
  br label %81

81:                                               ; preds = %80
  store i32 -1, ptr %5, align 4, !tbaa !3
  br label %176

82:                                               ; No predecessors!
  br label %83

83:                                               ; preds = %82
  br label %84

84:                                               ; preds = %83
  br label %85

85:                                               ; preds = %84
  br label %86

86:                                               ; preds = %85, %59
  %87 = load i8, ptr %3, align 1, !tbaa !7, !range !9, !noundef !10
  %88 = trunc i8 %87 to i1
  br i1 %88, label %89, label %148

89:                                               ; preds = %86
  %90 = load i8, ptr %4, align 1, !tbaa !7, !range !9, !noundef !10
  %91 = trunc i8 %90 to i1
  br i1 %91, label %92, label %120

92:                                               ; preds = %89
  %93 = load ptr, ptr %2, align 8, !tbaa !13
  %94 = getelementptr inbounds nuw %struct.H5F_t, ptr %93, i32 0, i32 2
  %95 = load ptr, ptr %94, align 8, !tbaa !16
  %96 = getelementptr inbounds nuw %struct.H5F_shared_t, ptr %95, i32 0, i32 16
  %97 = load ptr, ptr %96, align 8, !tbaa !22
  %98 = call i32 @H5C_log_write_destroy_cache_msg(ptr noundef %97)
  %99 = icmp slt i32 %98, 0
  br i1 %99, label %100, label %119

100:                                              ; preds = %92
  br label %101

101:                                              ; preds = %100
  br label %102

102:                                              ; preds = %101
  br label %103

103:                                              ; preds = %102
  %104 = load i64, ptr @H5E_CACHE_g, align 8, !tbaa !11
  %105 = load i64, ptr @H5E_LOGGING_g, align 8, !tbaa !11
  %106 = call i32 (ptr, ptr, i32, i64, i64, ptr, ...) @H5E_printf_stack(ptr noundef @.str, ptr noundef @__func__.H5AC_dest, i32 noundef 456, i64 noundef %104, i64 noundef %105, ptr noundef @.str.7)
  br label %107

107:                                              ; preds = %103
  br label %108

108:                                              ; preds = %107
  store i8 1, ptr %6, align 1, !tbaa !7
  %109 = load i8, ptr %6, align 1, !tbaa !7, !range !9, !noundef !10
  %110 = trunc i8 %109 to i1
  %111 = zext i1 %110 to i8
  store i8 %111, ptr %6, align 1, !tbaa !7
  br label %112

112:                                              ; preds = %108
  br label %113

113:                                              ; preds = %112
  br label %114

114:                                              ; preds = %113
  store i32 -1, ptr %5, align 4, !tbaa !3
  br label %176

115:                                              ; No predecessors!
  br label %116

116:                                              ; preds = %115
  br label %117

117:                                              ; preds = %116
  br label %118

118:                                              ; preds = %117
  br label %119

119:                                              ; preds = %118, %92
  br label %120

120:                                              ; preds = %119, %89
  %121 = load ptr, ptr %2, align 8, !tbaa !13
  %122 = getelementptr inbounds nuw %struct.H5F_t, ptr %121, i32 0, i32 2
  %123 = load ptr, ptr %122, align 8, !tbaa !16
  %124 = getelementptr inbounds nuw %struct.H5F_shared_t, ptr %123, i32 0, i32 16
  %125 = load ptr, ptr %124, align 8, !tbaa !22
  %126 = call i32 @H5C_log_tear_down(ptr noundef %125)
  %127 = icmp slt i32 %126, 0
  br i1 %127, label %128, label %147

128:                                              ; preds = %120
  br label %129

129:                                              ; preds = %128
  br label %130

130:                                              ; preds = %129
  br label %131

131:                                              ; preds = %130
  %132 = load i64, ptr @H5E_CACHE_g, align 8, !tbaa !11
  %133 = load i64, ptr @H5E_LOGGING_g, align 8, !tbaa !11
  %134 = call i32 (ptr, ptr, i32, i64, i64, ptr, ...) @H5E_printf_stack(ptr noundef @.str, ptr noundef @__func__.H5AC_dest, i32 noundef 459, i64 noundef %132, i64 noundef %133, ptr noundef @.str.9)
  br label %135

135:                                              ; preds = %131
  br label %136

136:                                              ; preds = %135
  store i8 1, ptr %6, align 1, !tbaa !7
  %137 = load i8, ptr %6, align 1, !tbaa !7, !range !9, !noundef !10
  %138 = trunc i8 %137 to i1
  %139 = zext i1 %138 to i8
  store i8 %139, ptr %6, align 1, !tbaa !7
  br label %140

140:                                              ; preds = %136
  br label %141

141:                                              ; preds = %140
  br label %142

142:                                              ; preds = %141
  store i32 -1, ptr %5, align 4, !tbaa !3
  br label %176

143:                                              ; No predecessors!
  br label %144

144:                                              ; preds = %143
  br label %145

145:                                              ; preds = %144
  br label %146

146:                                              ; preds = %145
  br label %147

147:                                              ; preds = %146, %120
  br label %148

148:                                              ; preds = %147, %86
  %149 = load ptr, ptr %2, align 8, !tbaa !13
  %150 = call i32 @H5C_dest(ptr noundef %149)
  %151 = icmp slt i32 %150, 0
  br i1 %151, label %152, label %171

152:                                              ; preds = %148
  br label %153

153:                                              ; preds = %152
  br label %154

154:                                              ; preds = %153
  br label %155

155:                                              ; preds = %154
  %156 = load i64, ptr @H5E_CACHE_g, align 8, !tbaa !11
  %157 = load i64, ptr @H5E_CANTFREE_g, align 8, !tbaa !11
  %158 = call i32 (ptr, ptr, i32, i64, i64, ptr, ...) @H5E_printf_stack(ptr noundef @.str, ptr noundef @__func__.H5AC_dest, i32 noundef 503, i64 noundef %156, i64 noundef %157, ptr noundef @.str.10)
  br label %159

159:                                              ; preds = %155
  br label %160

160:                                              ; preds = %159
  store i8 1, ptr %6, align 1, !tbaa !7
  %161 = load i8, ptr %6, align 1, !tbaa !7, !range !9, !noundef !10
  %162 = trunc i8 %161 to i1
  %163 = zext i1 %162 to i8
  store i8 %163, ptr %6, align 1, !tbaa !7
  br label %164

164:                                              ; preds = %160
  br label %165

165:                                              ; preds = %164
  br label %166

166:                                              ; preds = %165
  store i32 -1, ptr %5, align 4, !tbaa !3
  br label %176

167:                                              ; No predecessors!
  br label %168

168:                                              ; preds = %167
  br label %169

169:                                              ; preds = %168
  br label %170

170:                                              ; preds = %169
  br label %171

171:                                              ; preds = %170, %148
  %172 = load ptr, ptr %2, align 8, !tbaa !13
  %173 = getelementptr inbounds nuw %struct.H5F_t, ptr %172, i32 0, i32 2
  %174 = load ptr, ptr %173, align 8, !tbaa !16
  %175 = getelementptr inbounds nuw %struct.H5F_shared_t, ptr %174, i32 0, i32 16
  store ptr null, ptr %175, align 8, !tbaa !22
  br label %176

176:                                              ; preds = %171, %166, %142, %114, %81, %38
  br label %177

177:                                              ; preds = %176, %51
  %178 = load i32, ptr %5, align 4, !tbaa !3
  call void @llvm.lifetime.end.p0(i64 1, ptr %6) #6
  call void @llvm.lifetime.end.p0(i64 4, ptr %5) #6
  call void @llvm.lifetime.end.p0(i64 1, ptr %4) #6
  call void @llvm.lifetime.end.p0(i64 1, ptr %3) #6
  ret i32 %178
}