; Function Attrs: nounwind uwtable
define range(i32 -1, 1) i32 @H5AC_dest(ptr noundef %0) local_unnamed_addr #4 {
  %2 = alloca i8, align 1
  %3 = alloca i8, align 1
  call void @llvm.lifetime.start.p0(i64 1, ptr nonnull %2) #8
  call void @llvm.lifetime.start.p0(i64 1, ptr nonnull %3) #8
  %4 = load i8, ptr @H5AC_init_g, align 1, !tbaa !3, !range !7, !noundef !8
  %5 = trunc nuw i8 %4 to i1
  %6 = load i8, ptr @H5_libterm_g, align 1, !range !7
  %7 = trunc nuw i8 %6 to i1
  %8 = select i1 %5, i1 true, i1 %7
  br i1 %8, label %9, label %.thread, !prof !9

.thread:                                          ; preds = %1
  store i8 1, ptr @H5AC_init_g, align 1, !tbaa !3
  br label %12

9:                                                ; preds = %1
  %10 = xor i1 %7, true
  %11 = select i1 %5, i1 true, i1 %10
  br i1 %11, label %12, label %59, !prof !41

12:                                               ; preds = %.thread, %9
  %13 = getelementptr inbounds nuw i8, ptr %0, i64 16
  %14 = load ptr, ptr %13, align 8, !tbaa !11
  %15 = getelementptr inbounds nuw i8, ptr %14, i64 112
  %16 = load ptr, ptr %15, align 8, !tbaa !20
  %17 = call i32 @H5C_get_logging_status(ptr noundef %16, ptr noundef nonnull %2, ptr noundef nonnull %3) #8
  %18 = icmp slt i32 %17, 0
  br i1 %18, label %19, label %23

19:                                               ; preds = %12
  %20 = load i64, ptr @H5E_CACHE_g, align 8, !tbaa !42
  %21 = load i64, ptr @H5E_LOGGING_g, align 8, !tbaa !42
  %22 = call i32 (ptr, ptr, i32, i64, i64, ptr, ...) @H5E_printf_stack(ptr noundef nonnull @.str, ptr noundef nonnull @__func__.H5AC_dest, i32 noundef 450, i64 noundef %20, i64 noundef %21, ptr noundef nonnull @.str.8) #8
  br label %59

23:                                               ; preds = %12
  %24 = load i8, ptr %2, align 1, !tbaa !3, !range !7, !noundef !8
  %25 = trunc nuw i8 %24 to i1
  br i1 %25, label %26, label %49

26:                                               ; preds = %23
  %27 = load i8, ptr %3, align 1, !tbaa !3, !range !7, !noundef !8
  %28 = trunc nuw i8 %27 to i1
  br i1 %28, label %29, label %39

29:                                               ; preds = %26
  %30 = load ptr, ptr %13, align 8, !tbaa !11
  %31 = getelementptr inbounds nuw i8, ptr %30, i64 112
  %32 = load ptr, ptr %31, align 8, !tbaa !20
  %33 = call i32 @H5C_log_write_destroy_cache_msg(ptr noundef %32) #8
  %34 = icmp slt i32 %33, 0
  br i1 %34, label %35, label %39

35:                                               ; preds = %29
  %36 = load i64, ptr @H5E_CACHE_g, align 8, !tbaa !42
  %37 = load i64, ptr @H5E_LOGGING_g, align 8, !tbaa !42
  %38 = call i32 (ptr, ptr, i32, i64, i64, ptr, ...) @H5E_printf_stack(ptr noundef nonnull @.str, ptr noundef nonnull @__func__.H5AC_dest, i32 noundef 456, i64 noundef %36, i64 noundef %37, ptr noundef nonnull @.str.7) #8
  br label %59

39:                                               ; preds = %29, %26
  %40 = load ptr, ptr %13, align 8, !tbaa !11
  %41 = getelementptr inbounds nuw i8, ptr %40, i64 112
  %42 = load ptr, ptr %41, align 8, !tbaa !20
  %43 = call i32 @H5C_log_tear_down(ptr noundef %42) #8
  %44 = icmp slt i32 %43, 0
  br i1 %44, label %45, label %49

45:                                               ; preds = %39
  %46 = load i64, ptr @H5E_CACHE_g, align 8, !tbaa !42
  %47 = load i64, ptr @H5E_LOGGING_g, align 8, !tbaa !42
  %48 = call i32 (ptr, ptr, i32, i64, i64, ptr, ...) @H5E_printf_stack(ptr noundef nonnull @.str, ptr noundef nonnull @__func__.H5AC_dest, i32 noundef 459, i64 noundef %46, i64 noundef %47, ptr noundef nonnull @.str.9) #8
  br label %59

49:                                               ; preds = %39, %23
  %50 = call i32 @H5C_dest(ptr noundef nonnull %0) #8
  %51 = icmp slt i32 %50, 0
  br i1 %51, label %52, label %56

52:                                               ; preds = %49
  %53 = load i64, ptr @H5E_CACHE_g, align 8, !tbaa !42
  %54 = load i64, ptr @H5E_CANTFREE_g, align 8, !tbaa !42
  %55 = call i32 (ptr, ptr, i32, i64, i64, ptr, ...) @H5E_printf_stack(ptr noundef nonnull @.str, ptr noundef nonnull @__func__.H5AC_dest, i32 noundef 503, i64 noundef %53, i64 noundef %54, ptr noundef nonnull @.str.10) #8
  br label %59

56:                                               ; preds = %49
  %57 = load ptr, ptr %13, align 8, !tbaa !11
  %58 = getelementptr inbounds nuw i8, ptr %57, i64 112
  store ptr null, ptr %58, align 8, !tbaa !20
  br label %59

59:                                               ; preds = %19, %35, %45, %52, %56, %9
  %.0 = phi i32 [ -1, %19 ], [ -1, %35 ], [ -1, %45 ], [ -1, %52 ], [ 0, %56 ], [ 0, %9 ]
  call void @llvm.lifetime.end.p0(i64 1, ptr nonnull %3) #8
  call void @llvm.lifetime.end.p0(i64 1, ptr nonnull %2) #8
  ret i32 %.0
}